; ModuleID = 'source-C-CXX/61/2106.c'
source_filename = "source-C-CXX/61/2106.c"
target datalayout = "e-m:e-p270:32:32-p271:32:32-p272:64:64-i64:64-f80:128-n8:16:32:64-S128"
target triple = "x86_64-pc-linux-gnu"

@.str = private unnamed_addr constant [3 x i8] c"%c\00", align 1

; Function Attrs: nofree nounwind sspstrong uwtable
define dso_local i32 @main() local_unnamed_addr #0 {
  %1 = alloca [20000 x i8], align 16
  %2 = alloca i8, align 1
  %3 = getelementptr inbounds [20000 x i8], [20000 x i8]* %1, i64 0, i64 0
  call void @llvm.lifetime.start.p0i8(i64 20000, i8* nonnull %3) #4
  call void @llvm.lifetime.start.p0i8(i64 1, i8* nonnull %2) #4
  br label %4

4:                                                ; preds = %0, %22
  %5 = phi i32 [ 0, %0 ], [ %23, %22 ]
  %6 = phi i32 [ 0, %0 ], [ %24, %22 ]
  %7 = call i32 (i8*, ...) @__isoc99_scanf(i8* getelementptr inbounds ([3 x i8], [3 x i8]* @.str, i64 0, i64 0), i8* nonnull %2)
  %8 = load i8, i8* %2, align 1, !tbaa !5
  %9 = add nsw i32 %5, -1
  %10 = sext i32 %9 to i64
  %11 = getelementptr inbounds [20000 x i8], [20000 x i8]* %1, i64 0, i64 %10
  %12 = load i8, i8* %11, align 1, !tbaa !5
  %13 = icmp eq i8 %12, 32
  %14 = icmp eq i8 %8, 32
  %15 = and i1 %14, %13
  br i1 %15, label %22, label %16

16:                                               ; preds = %4
  %17 = sext i32 %5 to i64
  %18 = getelementptr inbounds [20000 x i8], [20000 x i8]* %1, i64 0, i64 %17
  store i8 %8, i8* %18, align 1, !tbaa !5
  %19 = sext i8 %8 to i32
  %20 = call i32 @putchar(i32 %19)
  %21 = add nsw i32 %5, 1
  br label %22

22:                                               ; preds = %4, %16
  %23 = phi i32 [ %21, %16 ], [ %5, %4 ]
  %24 = add nuw nsw i32 %6, 1
  %25 = icmp eq i32 %24, 20000
  br i1 %25, label %26, label %4, !llvm.loop !8

26:                                               ; preds = %22
  call void @llvm.lifetime.end.p0i8(i64 1, i8* nonnull %2) #4
  call void @llvm.lifetime.end.p0i8(i64 20000, i8* nonnull %3) #4
  ret i32 0
}

; Function Attrs: argmemonly mustprogress nofree nosync nounwind willreturn
declare void @llvm.lifetime.start.p0i8(i64 immarg, i8* nocapture) #1

; Function Attrs: nofree nounwind
declare noundef i32 @__isoc99_scanf(i8* nocapture noundef readonly, ...) local_unnamed_addr #2

; Function Attrs: argmemonly mustprogress nofree nosync nounwind willreturn
declare void @llvm.lifetime.end.p0i8(i64 immarg, i8* nocapture) #1

; Function Attrs: nofree nounwind
declare noundef i32 @putchar(i32 noundef) local_unnamed_addr #3


!llvm.module.flags = !{!0, !1, !2, !3}
!llvm.ident = !{!4}

!0 = !{i32 1, !"wchar_size", i32 4}
!1 = !{i32 7, !"PIC Level", i32 2}
!2 = !{i32 7, !"PIE Level", i32 2}
!3 = !{i32 7, !"uwtable", i32 1}
!4 = !{!"clang version 13.0.0"}
!5 = !{!6, !6, i64 0}
!6 = !{!"omnipotent char", !7, i64 0}
!7 = !{!"Simple C/C++ TBAA"}
!8 = distinct !{!8, !9}
!9 = !{!"llvm.loop.mustprogress"}
